; Function Attrs: mustprogress nounwind uwtable
define dso_local void @_ZN4llvm9DbgMarker15eraseFromParentEv(ptr noundef nonnull align 8 dereferenceable(24) %0) local_unnamed_addr #0 align 2 {
  %2 = load ptr, ptr %0, align 8
  %.not = icmp eq ptr %2, null
  br i1 %.not, label %5, label %3

3:                                                ; preds = %1
  %4 = getelementptr inbounds nuw i8, ptr %2, i64 64
  store ptr null, ptr %4, align 8
  store ptr null, ptr %0, align 8
  br label %5

5:                                                ; preds = %3, %1
  %6 = getelementptr inbounds nuw i8, ptr %0, i64 8
  %7 = load ptr, ptr %6, align 8
  %8 = icmp eq ptr %6, %7
  br i1 %8, label %_ZN4llvm9DbgMarker14dropDbgRecordsEv.exit, label %.lr.ph.i

.lr.ph.i:                                         ; preds = %5
  %9 = getelementptr inbounds i8, ptr %0, i64 16
  br label %10

10:                                               ; preds = %10, %.lr.ph.i
  %11 = load ptr, ptr %9, align 8
  %12 = getelementptr inbounds nuw i8, ptr %11, i64 8
  %13 = load ptr, ptr %12, align 8
  %14 = load ptr, ptr %11, align 8
  store ptr %14, ptr %13, align 8
  %15 = getelementptr inbounds nuw i8, ptr %14, i64 8
  store ptr %13, ptr %15, align 8
  tail call void @llvm.memset.p0.i64(ptr noundef nonnull align 8 dereferenceable(16) %11, i8 0, i64 16, i1 false)
  tail call void @_ZN4llvm9DbgRecord12deleteRecordEv(ptr noundef nonnull align 8 dereferenceable(33) %11)
  %16 = load ptr, ptr %6, align 8
  %17 = icmp eq ptr %6, %16
  br i1 %17, label %_ZN4llvm9DbgMarker14dropDbgRecordsEv.exit, label %10, !llvm.loop !77

_ZN4llvm9DbgMarker14dropDbgRecordsEv.exit:        ; preds = %10, %5
  tail call void @_ZdlPvm(ptr noundef nonnull %0, i64 noundef 24) #18
  ret void
}